target datalayout = "e-m:e-p270:32:32-p271:32:32-p272:64:64-i64:64-i128:128-f80:128-n8:16:32:64-S128"
target triple = "x86_64-pc-linux-gnu"

; Function Attrs: nounwind uwtable
define internal void @scatter_double_2(ptr noundef %0, ptr noundef %1, i64 noundef %2, i64 noundef %3) #0 {
  %5 = alloca ptr, align 8
  %6 = alloca ptr, align 8
  %7 = alloca i64, align 8
  %8 = alloca i64, align 8
  %9 = alloca i32, align 4
  %10 = alloca i32, align 4
  store ptr %0, ptr %5, align 8, !tbaa !8
  store ptr %1, ptr %6, align 8, !tbaa !8
  store i64 %2, ptr %7, align 8, !tbaa !29
  store i64 %3, ptr %8, align 8, !tbaa !29
  call void @llvm.lifetime.start.p0(i64 4, ptr %9) #5
  call void @llvm.lifetime.start.p0(i64 4, ptr %10) #5
  store i32 0, ptr %10, align 4, !tbaa !15
  br label %11

11:                                               ; preds = %30, %4
  %12 = load i32, ptr %10, align 4, !tbaa !15
  %13 = icmp ult i32 %12, 4
  br i1 %13, label %14, label %39

14:                                               ; preds = %11
  store i32 0, ptr %9, align 4, !tbaa !15
  br label %15

15:                                               ; preds = %23, %14
  %16 = load i32, ptr %9, align 4, !tbaa !15
  %17 = icmp ult i32 %16, 4
  br i1 %17, label %18, label %29

18:                                               ; preds = %15
  %19 = load ptr, ptr %5, align 8, !tbaa !8
  %20 = getelementptr inbounds nuw double, ptr %19, i32 1
  store ptr %20, ptr %5, align 8, !tbaa !8
  %21 = load double, ptr %19, align 8, !tbaa !19
  %22 = load ptr, ptr %6, align 8, !tbaa !8
  store double %21, ptr %22, align 8, !tbaa !19
  br label %23

23:                                               ; preds = %18
  %24 = load i32, ptr %9, align 4, !tbaa !15
  %25 = add i32 %24, 1
  store i32 %25, ptr %9, align 4, !tbaa !15
  %26 = load i64, ptr %7, align 8, !tbaa !29
  %27 = load ptr, ptr %6, align 8, !tbaa !8
  %28 = getelementptr inbounds double, ptr %27, i64 %26
  store ptr %28, ptr %6, align 8, !tbaa !8
  br label %15

29:                                               ; preds = %15
  br label %30

30:                                               ; preds = %29
  %31 = load i32, ptr %10, align 4, !tbaa !15
  %32 = add i32 %31, 1
  store i32 %32, ptr %10, align 4, !tbaa !15
  %33 = load i64, ptr %8, align 8, !tbaa !29
  %34 = load i64, ptr %7, align 8, !tbaa !29
  %35 = mul nsw i64 4, %34
  %36 = sub nsw i64 %33, %35
  %37 = load ptr, ptr %6, align 8, !tbaa !8
  %38 = getelementptr inbounds double, ptr %37, i64 %36
  store ptr %38, ptr %6, align 8, !tbaa !8
  br label %11

39:                                               ; preds = %11
  call void @llvm.lifetime.end.p0(i64 4, ptr %10) #5
  call void @llvm.lifetime.end.p0(i64 4, ptr %9) #5
  ret void
}

; Function Attrs: nounwind uwtable
define i64 @zfp_decode_block_strided_double_2(ptr noundef %0, ptr noundef %1, i64 noundef %2, i64 noundef %3) #0 {
  %5 = alloca ptr, align 8
  %6 = alloca ptr, align 8
  %7 = alloca i64, align 8
  %8 = alloca i64, align 8
  %9 = alloca [16 x double], align 256
  %10 = alloca i64, align 8
  store ptr %0, ptr %5, align 8, !tbaa !4
  store ptr %1, ptr %6, align 8, !tbaa !8
  store i64 %2, ptr %7, align 8, !tbaa !29
  store i64 %3, ptr %8, align 8, !tbaa !29
  call void @llvm.lifetime.start.p0(i64 128, ptr %9) #5
  call void @llvm.lifetime.start.p0(i64 8, ptr %10) #5
  %11 = load ptr, ptr %5, align 8, !tbaa !4
  %12 = getelementptr inbounds [16 x double], ptr %9, i64 0, i64 0
  %13 = call i64 @zfp_decode_block_double_2(ptr noundef %11, ptr noundef %12)
  store i64 %13, ptr %10, align 8, !tbaa !29
  %14 = getelementptr inbounds [16 x double], ptr %9, i64 0, i64 0
  %15 = load ptr, ptr %6, align 8, !tbaa !8
  %16 = load i64, ptr %7, align 8, !tbaa !29
  %17 = load i64, ptr %8, align 8, !tbaa !29
  call void @scatter_double_2(ptr noundef %14, ptr noundef %15, i64 noundef %16, i64 noundef %17)
  %18 = load i64, ptr %10, align 8, !tbaa !29
  call void @llvm.lifetime.end.p0(i64 8, ptr %10) #5
  call void @llvm.lifetime.end.p0(i64 128, ptr %9) #5
  ret i64 %18
}